; ModuleID = '58/224.c'
source_filename = "58/224.c"
target datalayout = "e-m:e-p270:32:32-p271:32:32-p272:64:64-i64:64-f80:128-n8:16:32:64-S128"
target triple = "x86_64-pc-linux-gnu"

@judge = common dso_local global i32 0, align 4
@zfc = common dso_local global [81 x i8] zeroinitializer, align 16
@.str = private unnamed_addr constant [3 x i8] c"%d\00", align 1
@.str.1 = private unnamed_addr constant [3 x i8] c"0\0A\00", align 1
@.str.2 = private unnamed_addr constant [3 x i8] c"1\0A\00", align 1

; Function Attrs: noinline nounwind uwtable
define dso_local void @judge1(i8* %0) #0 {
  %2 = alloca i8*, align 8
  store i8* %0, i8** %2, align 8
  %3 = load i8*, i8** %2, align 8
  %4 = load i8, i8* %3, align 1
  %5 = sext i8 %4 to i32
  %6 = icmp sgt i32 %5, 64
  br i1 %6, label %7, label %12

7:                                                ; preds = %1
  %8 = load i8*, i8** %2, align 8
  %9 = load i8, i8* %8, align 1
  %10 = sext i8 %9 to i32
  %11 = icmp slt i32 %10, 91
  br i1 %11, label %28, label %12

12:                                               ; preds = %7, %1
  %13 = load i8*, i8** %2, align 8
  %14 = load i8, i8* %13, align 1
  %15 = sext i8 %14 to i32
  %16 = icmp sgt i32 %15, 96
  br i1 %16, label %17, label %22

17:                                               ; preds = %12
  %18 = load i8*, i8** %2, align 8
  %19 = load i8, i8* %18, align 1
  %20 = sext i8 %19 to i32
  %21 = icmp slt i32 %20, 123
  br i1 %21, label %28, label %22

22:                                               ; preds = %17, %12
  %23 = load i8*, i8** %2, align 8
  %24 = load i8, i8* %23, align 1
  %25 = sext i8 %24 to i32
  %26 = icmp eq i32 %25, 95
  br i1 %26, label %28, label %27

27:                                               ; preds = %22
  store i32 0, i32* @judge, align 4
  br label %28

28:                                               ; preds = %27, %22, %17, %7
  ret void
}

; Function Attrs: noinline nounwind uwtable
define dso_local void @judge2(i8* %0) #0 {
  %2 = alloca i8*, align 8
  %3 = alloca i32, align 4
  %4 = alloca i32, align 4
  store i8* %0, i8** %2, align 8
  %5 = call i64 @strlen(i8* getelementptr inbounds ([81 x i8], [81 x i8]* @zfc, i64 0, i64 0)) #3
  %6 = trunc i64 %5 to i32
  store i32 %6, i32* %3, align 4
  store i32 0, i32* %4, align 4
  br label %7

7:                                                ; preds = %69, %1
  %8 = load i32, i32* %4, align 4
  %9 = load i32, i32* %3, align 4
  %10 = icmp slt i32 %8, %9
  br i1 %10, label %11, label %72

11:                                               ; preds = %7
  %12 = load i8*, i8** %2, align 8
  %13 = load i32, i32* %4, align 4
  %14 = sext i32 %13 to i64
  %15 = getelementptr inbounds i8, i8* %12, i64 %14
  %16 = load i8, i8* %15, align 1
  %17 = sext i8 %16 to i32
  %18 = icmp sgt i32 %17, 64
  br i1 %18, label %19, label %27

19:                                               ; preds = %11
  %20 = load i8*, i8** %2, align 8
  %21 = load i32, i32* %4, align 4
  %22 = sext i32 %21 to i64
  %23 = getelementptr inbounds i8, i8* %20, i64 %22
  %24 = load i8, i8* %23, align 1
  %25 = sext i8 %24 to i32
  %26 = icmp slt i32 %25, 91
  br i1 %26, label %68, label %27

27:                                               ; preds = %19, %11
  %28 = load i8*, i8** %2, align 8
  %29 = load i32, i32* %4, align 4
  %30 = sext i32 %29 to i64
  %31 = getelementptr inbounds i8, i8* %28, i64 %30
  %32 = load i8, i8* %31, align 1
  %33 = sext i8 %32 to i32
  %34 = icmp sgt i32 %33, 96
  br i1 %34, label %35, label %43

35:                                               ; preds = %27
  %36 = load i8*, i8** %2, align 8
  %37 = load i32, i32* %4, align 4
  %38 = sext i32 %37 to i64
  %39 = getelementptr inbounds i8, i8* %36, i64 %38
  %40 = load i8, i8* %39, align 1
  %41 = sext i8 %40 to i32
  %42 = icmp slt i32 %41, 123
  br i1 %42, label %68, label %43

43:                                               ; preds = %35, %27
  %44 = load i8*, i8** %2, align 8
  %45 = load i32, i32* %4, align 4
  %46 = sext i32 %45 to i64
  %47 = getelementptr inbounds i8, i8* %44, i64 %46
  %48 = load i8, i8* %47, align 1
  %49 = sext i8 %48 to i32
  %50 = icmp eq i32 %49, 95
  br i1 %50, label %68, label %51

51:                                               ; preds = %43
  %52 = load i8*, i8** %2, align 8
  %53 = load i32, i32* %4, align 4
  %54 = sext i32 %53 to i64
  %55 = getelementptr inbounds i8, i8* %52, i64 %54
  %56 = load i8, i8* %55, align 1
  %57 = sext i8 %56 to i32
  %58 = icmp sgt i32 %57, 47
  br i1 %58, label %59, label %67

59:                                               ; preds = %51
  %60 = load i8*, i8** %2, align 8
  %61 = load i32, i32* %4, align 4
  %62 = sext i32 %61 to i64
  %63 = getelementptr inbounds i8, i8* %60, i64 %62
  %64 = load i8, i8* %63, align 1
  %65 = sext i8 %64 to i32
  %66 = icmp slt i32 %65, 58
  br i1 %66, label %68, label %67

67:                                               ; preds = %59, %51
  store i32 0, i32* @judge, align 4
  br label %72

68:                                               ; preds = %59, %43, %35, %19
  br label %69

69:                                               ; preds = %68
  %70 = load i32, i32* %4, align 4
  %71 = add nsw i32 %70, 1
  store i32 %71, i32* %4, align 4
  br label %7

72:                                               ; preds = %67, %7
  ret void
}

; Function Attrs: nounwind readonly
declare dso_local i64 @strlen(i8*) #1

; Function Attrs: noinline nounwind uwtable
define dso_local i32 @main() #0 {
  %1 = alloca i32, align 4
  %2 = alloca i32, align 4
  %3 = alloca i32, align 4
  %4 = alloca [30 x i8]*, align 8
  store i32 0, i32* %1, align 4
  %5 = call i32 (i8*, ...) @__isoc99_scanf(i8* getelementptr inbounds ([3 x i8], [3 x i8]* @.str, i64 0, i64 0), i32* %2)
  store i32 0, i32* %3, align 4
  br label %6

6:                                                ; preds = %31, %0
  %7 = load i32, i32* %3, align 4
  %8 = load i32, i32* %2, align 4
  %9 = icmp slt i32 %7, %8
  br i1 %9, label %10, label %34

10:                                               ; preds = %6
  store i32 1, i32* @judge, align 4
  %11 = load i32, i32* %3, align 4
  %12 = icmp eq i32 %11, 0
  br i1 %12, label %13, label %15

13:                                               ; preds = %10
  %14 = call i32 @getchar()
  br label %15

15:                                               ; preds = %13, %10
  %16 = call i32 (i8*, ...) bitcast (i32 (...)* @gets to i32 (i8*, ...)*)(i8* getelementptr inbounds ([81 x i8], [81 x i8]* @zfc, i64 0, i64 0))
  store [30 x i8]* bitcast ([81 x i8]* @zfc to [30 x i8]*), [30 x i8]** %4, align 8
  %17 = load [30 x i8]*, [30 x i8]** %4, align 8
  %18 = getelementptr inbounds [30 x i8], [30 x i8]* %17, i64 0, i64 0
  call void @judge1(i8* %18)
  %19 = load [30 x i8]*, [30 x i8]** %4, align 8
  %20 = getelementptr inbounds [30 x i8], [30 x i8]* %19, i64 0, i64 0
  call void @judge2(i8* %20)
  %21 = load i32, i32* @judge, align 4
  %22 = icmp eq i32 %21, 0
  br i1 %22, label %23, label %25

23:                                               ; preds = %15
  %24 = call i32 (i8*, ...) @printf(i8* getelementptr inbounds ([3 x i8], [3 x i8]* @.str.1, i64 0, i64 0))
  br label %25

25:                                               ; preds = %23, %15
  %26 = load i32, i32* @judge, align 4
  %27 = icmp eq i32 %26, 1
  br i1 %27, label %28, label %30

28:                                               ; preds = %25
  %29 = call i32 (i8*, ...) @printf(i8* getelementptr inbounds ([3 x i8], [3 x i8]* @.str.2, i64 0, i64 0))
  br label %30

30:                                               ; preds = %28, %25
  br label %31

31:                                               ; preds = %30
  %32 = load i32, i32* %3, align 4
  %33 = add nsw i32 %32, 1
  store i32 %33, i32* %3, align 4
  br label %6

34:                                               ; preds = %6
  ret i32 0
}

declare dso_local i32 @__isoc99_scanf(i8*, ...) #2

declare dso_local i32 @getchar() #2

declare dso_local i32 @gets(...) #2

declare dso_local i32 @printf(i8*, ...) #2


!llvm.module.flags = !{!0}
!llvm.ident = !{!1}

!0 = !{i32 1, !"wchar_size", i32 4}
!1 = !{!"clang version 10.0.0-4ubuntu1 "}
